; Function Attrs: mustprogress nofree norecurse nosync nounwind willreturn memory(read, inaccessiblemem: none) uwtable
define hidden ptr @_ZN11realclosure7manager19transcendental_nameERKNS_3numE(ptr noundef nonnull readonly align 8 captures(none) dereferenceable(8) %0, ptr noundef nonnull readonly align 8 captures(none) dereferenceable(8) %1) local_unnamed_addr #9 align 2 {
  %3 = load ptr, ptr %1, align 8, !tbaa !84
  %4 = getelementptr inbounds nuw i8, ptr %3, i64 4
  %5 = load i8, ptr %4, align 4, !tbaa !61, !range !105, !noundef !106
  %6 = trunc nuw i8 %5 to i1
  br i1 %6, label %_ZN11realclosure7manager3imp19transcendental_nameERKNS_3numE.exit, label %_ZN11realclosure7manager3imp17is_transcendentalERKNS_3numE.exit.i

_ZN11realclosure7manager3imp17is_transcendentalERKNS_3numE.exit.i: ; preds = %2
  %7 = getelementptr inbounds nuw i8, ptr %3, i64 88
  %8 = load ptr, ptr %7, align 8, !tbaa !108
  %9 = getelementptr inbounds nuw i8, ptr %8, i64 4
  %10 = load i32, ptr %9, align 4
  %11 = and i32 %10, 3
  %12 = icmp eq i32 %11, 0
  br i1 %12, label %13, label %_ZN11realclosure7manager3imp19transcendental_nameERKNS_3numE.exit

13:                                               ; preds = %_ZN11realclosure7manager3imp17is_transcendentalERKNS_3numE.exit.i
  %14 = getelementptr inbounds nuw i8, ptr %8, i64 72
  %15 = load i64, ptr %14, align 8, !tbaa !142
  %16 = inttoptr i64 %15 to ptr
  br label %_ZN11realclosure7manager3imp19transcendental_nameERKNS_3numE.exit

_ZN11realclosure7manager3imp19transcendental_nameERKNS_3numE.exit: ; preds = %2, %_ZN11realclosure7manager3imp17is_transcendentalERKNS_3numE.exit.i, %13
  %.sroa.0.0.i = phi ptr [ %16, %13 ], [ null, %_ZN11realclosure7manager3imp17is_transcendentalERKNS_3numE.exit.i ], [ null, %2 ]
  ret ptr %.sroa.0.0.i
}